target datalayout = "e-m:e-p270:32:32-p271:32:32-p272:64:64-i64:64-i128:128-f80:128-n8:16:32:64-S128"
target triple = "x86_64-pc-linux-gnu"

%struct.Fra_Cla_t_ = type { ptr, ptr, ptr, ptr, ptr, ptr, ptr, ptr, ptr, i32, i32, ptr, ptr, ptr, ptr }
%struct.Aig_Man_t_ = type { ptr, ptr, ptr, ptr, ptr, ptr, ptr, %struct.Aig_Obj_t_, i32, i32, i32, i32, i32, i32, [7 x i32], i32, ptr, i32, ptr, i32, ptr, i32, i32, i32, ptr, i32, i32, i32, i32, i32, ptr, ptr, i32, ptr, ptr, i32, ptr, ptr, i32, i32, i32, ptr, ptr, ptr, ptr, ptr, ptr, ptr, ptr, ptr, ptr, ptr, ptr, ptr, ptr, i32, ptr, ptr, ptr, ptr, i32, i64, i64, i64, ptr, ptr }
%struct.Aig_Obj_t_ = type { %union.anon, ptr, ptr, i64, i32, i32, %union.anon.0 }
%union.anon = type { ptr }
%union.anon.0 = type { ptr }
%struct.Vec_Ptr_t_ = type { i32, i32, ptr }

@.str = private unnamed_addr constant [26 x i8] c"Classes are not cleared!\0A\00", align 1

; Function Attrs: inlinehint nounwind uwtable
define internal ptr @Vec_PtrEntry(ptr noundef %0, i32 noundef %1) #4 {
  %3 = alloca ptr, align 8
  %4 = alloca i32, align 4
  store ptr %0, ptr %3, align 8, !tbaa !36
  store i32 %1, ptr %4, align 4, !tbaa !35
  %5 = load ptr, ptr %3, align 8, !tbaa !36
  %6 = getelementptr inbounds nuw %struct.Vec_Ptr_t_, ptr %5, i32 0, i32 2
  %7 = load ptr, ptr %6, align 8, !tbaa !40
  %8 = load i32, ptr %4, align 4, !tbaa !35
  %9 = sext i32 %8 to i64
  %10 = getelementptr inbounds ptr, ptr %7, i64 %9
  %11 = load ptr, ptr %10, align 8, !tbaa !52
  ret ptr %11
}

; Function Attrs: inlinehint nounwind uwtable
define internal i32 @Vec_PtrSize(ptr noundef %0) #4 {
  %2 = alloca ptr, align 8
  store ptr %0, ptr %2, align 8, !tbaa !36
  %3 = load ptr, ptr %2, align 8, !tbaa !36
  %4 = getelementptr inbounds nuw %struct.Vec_Ptr_t_, ptr %3, i32 0, i32 1
  %5 = load i32, ptr %4, align 4, !tbaa !37
  ret i32 %5
}

; Function Attrs: inlinehint nounwind uwtable
define internal i32 @Aig_ManObjNumMax(ptr noundef %0) #4 {
  %2 = alloca ptr, align 8
  store ptr %0, ptr %2, align 8, !tbaa !3
  %3 = load ptr, ptr %2, align 8, !tbaa !3
  %4 = getelementptr inbounds nuw %struct.Aig_Man_t_, ptr %3, i32 0, i32 4
  %5 = load ptr, ptr %4, align 8, !tbaa !25
  %6 = call i32 @Vec_PtrSize(ptr noundef %5)
  ret i32 %6
}

; Function Attrs: nounwind uwtable
define void @Fra_ClassesCopyReprs(ptr noundef %0, ptr noundef %1) #0 {
  %3 = alloca ptr, align 8
  %4 = alloca ptr, align 8
  %5 = alloca ptr, align 8
  %6 = alloca i32, align 4
  store ptr %0, ptr %3, align 8, !tbaa !8
  store ptr %1, ptr %4, align 8, !tbaa !36
  call void @llvm.lifetime.start.p0(i64 8, ptr %5) #10
  call void @llvm.lifetime.start.p0(i64 4, ptr %6) #10
  %7 = load ptr, ptr %3, align 8, !tbaa !8
  %8 = getelementptr inbounds nuw %struct.Fra_Cla_t_, ptr %7, i32 0, i32 0
  %9 = load ptr, ptr %8, align 8, !tbaa !10
  %10 = load ptr, ptr %3, align 8, !tbaa !8
  %11 = getelementptr inbounds nuw %struct.Fra_Cla_t_, ptr %10, i32 0, i32 0
  %12 = load ptr, ptr %11, align 8, !tbaa !10
  %13 = call i32 @Aig_ManObjNumMax(ptr noundef %12)
  call void @Aig_ManReprStart(ptr noundef %9, i32 noundef %13)
  %14 = load ptr, ptr %3, align 8, !tbaa !8
  %15 = getelementptr inbounds nuw %struct.Fra_Cla_t_, ptr %14, i32 0, i32 0
  %16 = load ptr, ptr %15, align 8, !tbaa !10
  %17 = getelementptr inbounds nuw %struct.Aig_Man_t_, ptr %16, i32 0, i32 31
  %18 = load ptr, ptr %17, align 8, !tbaa !46
  %19 = load ptr, ptr %3, align 8, !tbaa !8
  %20 = getelementptr inbounds nuw %struct.Fra_Cla_t_, ptr %19, i32 0, i32 1
  %21 = load ptr, ptr %20, align 8, !tbaa !16
  %22 = load ptr, ptr %3, align 8, !tbaa !8
  %23 = getelementptr inbounds nuw %struct.Fra_Cla_t_, ptr %22, i32 0, i32 0
  %24 = load ptr, ptr %23, align 8, !tbaa !10
  %25 = call i32 @Aig_ManObjNumMax(ptr noundef %24)
  %26 = sext i32 %25 to i64
  %27 = mul i64 8, %26
  call void @llvm.memmove.p0.p0.i64(ptr align 8 %18, ptr align 8 %21, i64 %27, i1 false)
  %28 = load ptr, ptr %3, align 8, !tbaa !8
  %29 = getelementptr inbounds nuw %struct.Fra_Cla_t_, ptr %28, i32 0, i32 3
  %30 = load ptr, ptr %29, align 8, !tbaa !18
  %31 = call i32 @Vec_PtrSize(ptr noundef %30)
  %32 = icmp eq i32 %31, 0
  br i1 %32, label %33, label %82

33:                                               ; preds = %2
  %34 = load ptr, ptr %3, align 8, !tbaa !8
  %35 = getelementptr inbounds nuw %struct.Fra_Cla_t_, ptr %34, i32 0, i32 2
  %36 = load ptr, ptr %35, align 8, !tbaa !17
  %37 = call i32 @Vec_PtrSize(ptr noundef %36)
  %38 = icmp eq i32 %37, 0
  br i1 %38, label %39, label %82

39:                                               ; preds = %33
  store i32 0, ptr %6, align 4, !tbaa !35
  br label %40

40:                                               ; preds = %78, %39
  %41 = load i32, ptr %6, align 4, !tbaa !35
  %42 = load ptr, ptr %3, align 8, !tbaa !8
  %43 = getelementptr inbounds nuw %struct.Fra_Cla_t_, ptr %42, i32 0, i32 0
  %44 = load ptr, ptr %43, align 8, !tbaa !10
  %45 = getelementptr inbounds nuw %struct.Aig_Man_t_, ptr %44, i32 0, i32 4
  %46 = load ptr, ptr %45, align 8, !tbaa !25
  %47 = call i32 @Vec_PtrSize(ptr noundef %46)
  %48 = icmp slt i32 %41, %47
  br i1 %48, label %49, label %57

49:                                               ; preds = %40
  %50 = load ptr, ptr %3, align 8, !tbaa !8
  %51 = getelementptr inbounds nuw %struct.Fra_Cla_t_, ptr %50, i32 0, i32 0
  %52 = load ptr, ptr %51, align 8, !tbaa !10
  %53 = getelementptr inbounds nuw %struct.Aig_Man_t_, ptr %52, i32 0, i32 4
  %54 = load ptr, ptr %53, align 8, !tbaa !25
  %55 = load i32, ptr %6, align 4, !tbaa !35
  %56 = call ptr @Vec_PtrEntry(ptr noundef %54, i32 noundef %55)
  store ptr %56, ptr %5, align 8, !tbaa !47
  br label %57

57:                                               ; preds = %49, %40
  %58 = phi i1 [ false, %40 ], [ true, %49 ]
  br i1 %58, label %59, label %81

59:                                               ; preds = %57
  %60 = load ptr, ptr %5, align 8, !tbaa !47
  %61 = icmp eq ptr %60, null
  br i1 %61, label %62, label %63

62:                                               ; preds = %59
  br label %77

63:                                               ; preds = %59
  %64 = load ptr, ptr %3, align 8, !tbaa !8
  %65 = getelementptr inbounds nuw %struct.Fra_Cla_t_, ptr %64, i32 0, i32 0
  %66 = load ptr, ptr %65, align 8, !tbaa !10
  %67 = getelementptr inbounds nuw %struct.Aig_Man_t_, ptr %66, i32 0, i32 31
  %68 = load ptr, ptr %67, align 8, !tbaa !46
  %69 = load i32, ptr %6, align 4, !tbaa !35
  %70 = sext i32 %69 to i64
  %71 = getelementptr inbounds ptr, ptr %68, i64 %70
  %72 = load ptr, ptr %71, align 8, !tbaa !47
  %73 = icmp ne ptr %72, null
  br i1 %73, label %74, label %76

74:                                               ; preds = %63
  %75 = call i32 (ptr, ...) @printf(ptr noundef @.str)
  br label %76

76:                                               ; preds = %74, %63
  br label %77

77:                                               ; preds = %76, %62
  br label %78

78:                                               ; preds = %77
  %79 = load i32, ptr %6, align 4, !tbaa !35
  %80 = add nsw i32 %79, 1
  store i32 %80, ptr %6, align 4, !tbaa !35
  br label %40, !llvm.loop !48

81:                                               ; preds = %57
  br label %82

82:                                               ; preds = %81, %33, %2
  %83 = load ptr, ptr %4, align 8, !tbaa !36
  %84 = icmp ne ptr %83, null
  br i1 %84, label %85, label %112

85:                                               ; preds = %82
  store i32 0, ptr %6, align 4, !tbaa !35
  br label %86

86:                                               ; preds = %108, %85
  %87 = load i32, ptr %6, align 4, !tbaa !35
  %88 = load ptr, ptr %4, align 8, !tbaa !36
  %89 = call i32 @Vec_PtrSize(ptr noundef %88)
  %90 = icmp slt i32 %87, %89
  br i1 %90, label %91, label %95

91:                                               ; preds = %86
  %92 = load ptr, ptr %4, align 8, !tbaa !36
  %93 = load i32, ptr %6, align 4, !tbaa !35
  %94 = call ptr @Vec_PtrEntry(ptr noundef %92, i32 noundef %93)
  store ptr %94, ptr %5, align 8, !tbaa !47
  br label %95

95:                                               ; preds = %91, %86
  %96 = phi i1 [ false, %86 ], [ true, %91 ]
  br i1 %96, label %97, label %111

97:                                               ; preds = %95
  %98 = load ptr, ptr %3, align 8, !tbaa !8
  %99 = getelementptr inbounds nuw %struct.Fra_Cla_t_, ptr %98, i32 0, i32 0
  %100 = load ptr, ptr %99, align 8, !tbaa !10
  %101 = getelementptr inbounds nuw %struct.Aig_Man_t_, ptr %100, i32 0, i32 31
  %102 = load ptr, ptr %101, align 8, !tbaa !46
  %103 = load ptr, ptr %5, align 8, !tbaa !47
  %104 = getelementptr inbounds nuw %struct.Aig_Obj_t_, ptr %103, i32 0, i32 5
  %105 = load i32, ptr %104, align 4, !tbaa !50
  %106 = sext i32 %105 to i64
  %107 = getelementptr inbounds ptr, ptr %102, i64 %106
  store ptr null, ptr %107, align 8, !tbaa !47
  br label %108

108:                                              ; preds = %97
  %109 = load i32, ptr %6, align 4, !tbaa !35
  %110 = add nsw i32 %109, 1
  store i32 %110, ptr %6, align 4, !tbaa !35
  br label %86, !llvm.loop !51

111:                                              ; preds = %95
  br label %112

112:                                              ; preds = %111, %82
  call void @llvm.lifetime.end.p0(i64 4, ptr %6) #10
  call void @llvm.lifetime.end.p0(i64 8, ptr %5) #10
  ret void
}