; Function Attrs: nounwind uwtable
define void @Fra_ClassesCopyReprs(ptr noundef readonly captures(none) %0, ptr noundef readonly %1) local_unnamed_addr #6 {
  %3 = load ptr, ptr %0, align 8, !tbaa !3
  %4 = getelementptr i8, ptr %3, i64 32
  %.val30 = load ptr, ptr %4, align 8, !tbaa !13
  %5 = getelementptr i8, ptr %.val30, i64 4
  %.val30.val = load i32, ptr %5, align 4, !tbaa !23
  tail call void @Aig_ManReprStart(ptr noundef %3, i32 noundef %.val30.val) #18
  %6 = load ptr, ptr %0, align 8, !tbaa !3
  %7 = getelementptr inbounds nuw i8, ptr %6, i64 256
  %8 = load ptr, ptr %7, align 8, !tbaa !40
  %9 = getelementptr inbounds nuw i8, ptr %0, i64 8
  %10 = load ptr, ptr %9, align 8, !tbaa !25
  %11 = getelementptr i8, ptr %6, i64 32
  %.val29 = load ptr, ptr %11, align 8, !tbaa !13
  %12 = getelementptr i8, ptr %.val29, i64 4
  %.val29.val = load i32, ptr %12, align 4, !tbaa !23
  %13 = sext i32 %.val29.val to i64
  %14 = shl nsw i64 %13, 3
  tail call void @llvm.memmove.p0.p0.i64(ptr align 8 %8, ptr align 8 %10, i64 %14, i1 false)
  %15 = getelementptr inbounds nuw i8, ptr %0, i64 24
  %16 = load ptr, ptr %15, align 8, !tbaa !29
  %17 = getelementptr i8, ptr %16, i64 4
  %.val = load i32, ptr %17, align 4, !tbaa !23
  %18 = icmp eq i32 %.val, 0
  br i1 %18, label %19, label %.critedge

19:                                               ; preds = %2
  %20 = getelementptr inbounds nuw i8, ptr %0, i64 16
  %21 = load ptr, ptr %20, align 8, !tbaa !28
  %22 = getelementptr i8, ptr %21, i64 4
  %.val26 = load i32, ptr %22, align 4, !tbaa !23
  %23 = icmp eq i32 %.val26, 0
  br i1 %23, label %.preheader33, label %.critedge

.preheader33:                                     ; preds = %19
  %24 = load ptr, ptr %0, align 8, !tbaa !3
  %25 = getelementptr inbounds nuw i8, ptr %24, i64 32
  %26 = load ptr, ptr %25, align 8, !tbaa !13
  %27 = getelementptr i8, ptr %26, i64 4
  %.val2734 = load i32, ptr %27, align 4, !tbaa !23
  %28 = icmp sgt i32 %.val2734, 0
  br i1 %28, label %.lr.ph, label %.critedge

.lr.ph:                                           ; preds = %.preheader33, %41
  %29 = phi ptr [ %42, %41 ], [ %24, %.preheader33 ]
  %indvars.iv = phi i64 [ %indvars.iv.next, %41 ], [ 0, %.preheader33 ]
  %30 = phi ptr [ %44, %41 ], [ %26, %.preheader33 ]
  %31 = getelementptr i8, ptr %30, i64 8
  %.val31 = load ptr, ptr %31, align 8, !tbaa !27
  %32 = getelementptr inbounds nuw ptr, ptr %.val31, i64 %indvars.iv
  %33 = load ptr, ptr %32, align 8, !tbaa !41
  %34 = icmp eq ptr %33, null
  br i1 %34, label %41, label %35

35:                                               ; preds = %.lr.ph
  %36 = getelementptr inbounds nuw i8, ptr %29, i64 256
  %37 = load ptr, ptr %36, align 8, !tbaa !40
  %38 = getelementptr inbounds nuw ptr, ptr %37, i64 %indvars.iv
  %39 = load ptr, ptr %38, align 8, !tbaa !42
  %.not25 = icmp eq ptr %39, null
  br i1 %.not25, label %41, label %40

40:                                               ; preds = %35
  %puts = tail call i32 @puts(ptr nonnull dereferenceable(1) @str)
  %.pre = load ptr, ptr %0, align 8, !tbaa !3
  br label %41

41:                                               ; preds = %.lr.ph, %40, %35
  %42 = phi ptr [ %29, %.lr.ph ], [ %.pre, %40 ], [ %29, %35 ]
  %indvars.iv.next = add nuw nsw i64 %indvars.iv, 1
  %43 = getelementptr inbounds nuw i8, ptr %42, i64 32
  %44 = load ptr, ptr %43, align 8, !tbaa !13
  %45 = getelementptr i8, ptr %44, i64 4
  %.val27 = load i32, ptr %45, align 4, !tbaa !23
  %46 = sext i32 %.val27 to i64
  %47 = icmp slt i64 %indvars.iv.next, %46
  br i1 %47, label %.lr.ph, label %.critedge, !llvm.loop !43

.critedge:                                        ; preds = %41, %.preheader33, %19, %2
  %.not = icmp eq ptr %1, null
  br i1 %.not, label %.critedge2, label %.preheader

.preheader:                                       ; preds = %.critedge
  %48 = getelementptr i8, ptr %1, i64 4
  %.val28 = load i32, ptr %48, align 4, !tbaa !23
  %49 = icmp sgt i32 %.val28, 0
  br i1 %49, label %.lr.ph37, label %.critedge2

.lr.ph37:                                         ; preds = %.preheader
  %50 = getelementptr i8, ptr %1, i64 8
  %.val32 = load ptr, ptr %50, align 8, !tbaa !27
  %51 = load ptr, ptr %0, align 8, !tbaa !3
  %52 = getelementptr inbounds nuw i8, ptr %51, i64 256
  %53 = load ptr, ptr %52, align 8, !tbaa !40
  %wide.trip.count = zext nneg i32 %.val28 to i64
  br label %54

54:                                               ; preds = %.lr.ph37, %54
  %indvars.iv39 = phi i64 [ 0, %.lr.ph37 ], [ %indvars.iv.next40, %54 ]
  %55 = getelementptr inbounds nuw ptr, ptr %.val32, i64 %indvars.iv39
  %56 = load ptr, ptr %55, align 8, !tbaa !41
  %57 = getelementptr inbounds nuw i8, ptr %56, i64 36
  %58 = load i32, ptr %57, align 4, !tbaa !45
  %59 = sext i32 %58 to i64
  %60 = getelementptr inbounds ptr, ptr %53, i64 %59
  store ptr null, ptr %60, align 8, !tbaa !42
  %indvars.iv.next40 = add nuw nsw i64 %indvars.iv39, 1
  %exitcond.not = icmp eq i64 %indvars.iv.next40, %wide.trip.count
  br i1 %exitcond.not, label %.critedge2, label %54, !llvm.loop !46

.critedge2:                                       ; preds = %54, %.preheader, %.critedge
  ret void
}